target datalayout = "e-m:e-p270:32:32-p271:32:32-p272:64:64-i64:64-i128:128-f80:128-n8:16:32:64-S128"
target triple = "x86_64-pc-linux-gnu"

%struct._lv_image_decoder_dsc_t = type { ptr, %struct._lv_image_decoder_args_t, ptr, i32, %struct.lv_fs_file_t, %struct.lv_image_header_t, ptr, ptr, i32, i32, ptr, ptr, ptr, ptr }
%struct._lv_image_decoder_args_t = type { i8, i8, i8, i8, i8 }
%struct.lv_fs_file_t = type { ptr, ptr, ptr }
%struct.lv_image_header_t = type <{ i64, i32 }>
%struct.lv_image_dsc_t = type { %struct.lv_image_header_t, i32, ptr, ptr }

@.str.1 = private unnamed_addr constant [4 x i8] c"bin\00", align 1

; Function Attrs: nounwind uwtable
define i32 @lv_bin_decoder_info(ptr noundef %0, ptr noundef %1, ptr noundef %2) #0 {
  %4 = alloca i32, align 4
  %5 = alloca ptr, align 8
  %6 = alloca ptr, align 8
  %7 = alloca ptr, align 8
  %8 = alloca ptr, align 8
  %9 = alloca i32, align 4
  %10 = alloca ptr, align 8
  %11 = alloca i32, align 4
  %12 = alloca i32, align 4
  %13 = alloca i32, align 4
  store ptr %0, ptr %5, align 8, !tbaa !3
  store ptr %1, ptr %6, align 8, !tbaa !11
  store ptr %2, ptr %7, align 8, !tbaa !13
  call void @llvm.lifetime.start.p0(i64 8, ptr %8) #5
  %14 = load ptr, ptr %6, align 8, !tbaa !11
  %15 = getelementptr inbounds nuw %struct._lv_image_decoder_dsc_t, ptr %14, i32 0, i32 2
  %16 = load ptr, ptr %15, align 8, !tbaa !14
  store ptr %16, ptr %8, align 8, !tbaa !13
  call void @llvm.lifetime.start.p0(i64 4, ptr %9) #5
  %17 = load ptr, ptr %6, align 8, !tbaa !11
  %18 = getelementptr inbounds nuw %struct._lv_image_decoder_dsc_t, ptr %17, i32 0, i32 3
  %19 = load i32, ptr %18, align 8, !tbaa !26
  store i32 %19, ptr %9, align 4, !tbaa !27
  %20 = load i32, ptr %9, align 4, !tbaa !27
  %21 = icmp eq i32 %20, 0
  br i1 %21, label %22, label %28

22:                                               ; preds = %3
  call void @llvm.lifetime.start.p0(i64 8, ptr %10) #5
  %23 = load ptr, ptr %8, align 8, !tbaa !13
  store ptr %23, ptr %10, align 8, !tbaa !13
  %24 = load ptr, ptr %7, align 8, !tbaa !13
  %25 = load ptr, ptr %10, align 8, !tbaa !13
  %26 = getelementptr inbounds nuw %struct.lv_image_dsc_t, ptr %25, i32 0, i32 0
  %27 = call ptr @lv_memcpy(ptr noundef %24, ptr noundef %26, i64 noundef 12)
  call void @llvm.lifetime.end.p0(i64 8, ptr %10) #5
  br label %115

28:                                               ; preds = %3
  %29 = load i32, ptr %9, align 4, !tbaa !27
  %30 = icmp eq i32 %29, 1
  br i1 %30, label %31, label %93

31:                                               ; preds = %28
  %32 = load ptr, ptr %8, align 8, !tbaa !13
  %33 = call ptr @lv_fs_get_ext(ptr noundef %32)
  %34 = call i32 @lv_strcmp(ptr noundef %33, ptr noundef @.str.1)
  %35 = icmp ne i32 %34, 0
  br i1 %35, label %36, label %37

36:                                               ; preds = %31
  store i32 0, ptr %4, align 4
  store i32 1, ptr %11, align 4
  br label %135

37:                                               ; preds = %31
  call void @llvm.lifetime.start.p0(i64 4, ptr %12) #5
  call void @llvm.lifetime.start.p0(i64 4, ptr %13) #5
  %38 = load ptr, ptr %6, align 8, !tbaa !11
  %39 = getelementptr inbounds nuw %struct._lv_image_decoder_dsc_t, ptr %38, i32 0, i32 4
  %40 = load ptr, ptr %7, align 8, !tbaa !13
  %41 = call i32 @lv_fs_read(ptr noundef %39, ptr noundef %40, i32 noundef 12, ptr noundef %13)
  store i32 %41, ptr %12, align 4, !tbaa !27
  %42 = load i32, ptr %12, align 4, !tbaa !27
  %43 = icmp ne i32 %42, 0
  br i1 %43, label %48, label %44

44:                                               ; preds = %37
  %45 = load i32, ptr %13, align 4, !tbaa !27
  %46 = zext i32 %45 to i64
  %47 = icmp ne i64 %46, 12
  br i1 %47, label %48, label %52

48:                                               ; preds = %44, %37
  br label %49

49:                                               ; preds = %48
  br label %50

50:                                               ; preds = %49
  br label %51

51:                                               ; preds = %50
  store i32 0, ptr %4, align 4
  store i32 1, ptr %11, align 4
  br label %90

52:                                               ; preds = %44
  %53 = load ptr, ptr %7, align 8, !tbaa !13
  %54 = load i64, ptr %53, align 4
  %55 = and i64 %54, 255
  %56 = trunc i64 %55 to i32
  %57 = icmp ne i32 %56, 25
  br i1 %57, label %58, label %77

58:                                               ; preds = %52
  br label %59

59:                                               ; preds = %58
  br label %60

60:                                               ; preds = %59
  br label %61

61:                                               ; preds = %60
  %62 = load ptr, ptr %7, align 8, !tbaa !13
  %63 = load i64, ptr %62, align 4
  %64 = and i64 %63, 255
  %65 = trunc i64 %64 to i32
  %66 = load ptr, ptr %7, align 8, !tbaa !13
  %67 = zext i32 %65 to i64
  %68 = load i64, ptr %66, align 4
  %69 = and i64 %67, 255
  %70 = shl i64 %69, 8
  %71 = and i64 %68, -65281
  %72 = or i64 %71, %70
  store i64 %72, ptr %66, align 4
  %73 = load ptr, ptr %7, align 8, !tbaa !13
  %74 = load i64, ptr %73, align 4
  %75 = and i64 %74, -256
  %76 = or i64 %75, 25
  store i64 %76, ptr %73, align 4
  br label %77

77:                                               ; preds = %61, %52
  %78 = load ptr, ptr %7, align 8, !tbaa !13
  %79 = load i64, ptr %78, align 4
  %80 = lshr i64 %79, 16
  %81 = and i64 %80, 65535
  %82 = trunc i64 %81 to i32
  %83 = or i32 %82, 32
  %84 = zext i32 %83 to i64
  %85 = load i64, ptr %78, align 4
  %86 = and i64 %84, 65535
  %87 = shl i64 %86, 16
  %88 = and i64 %85, -4294901761
  %89 = or i64 %88, %87
  store i64 %89, ptr %78, align 4
  store i32 0, ptr %11, align 4
  br label %90

90:                                               ; preds = %77, %51
  call void @llvm.lifetime.end.p0(i64 4, ptr %13) #5
  call void @llvm.lifetime.end.p0(i64 4, ptr %12) #5
  %91 = load i32, ptr %11, align 4
  switch i32 %91, label %135 [
    i32 0, label %92
  ]

92:                                               ; preds = %90
  br label %114

93:                                               ; preds = %28
  %94 = load i32, ptr %9, align 4, !tbaa !27
  %95 = icmp eq i32 %94, 2
  br i1 %95, label %96, label %109

96:                                               ; preds = %93
  %97 = load ptr, ptr %7, align 8, !tbaa !13
  %98 = load i64, ptr %97, align 4
  %99 = and i64 %98, -281470681743361
  %100 = or i64 %99, 4294967296
  store i64 %100, ptr %97, align 4
  %101 = load ptr, ptr %7, align 8, !tbaa !13
  %102 = load i64, ptr %101, align 4
  %103 = and i64 %102, 281474976710655
  %104 = or i64 %103, 281474976710656
  store i64 %104, ptr %101, align 4
  %105 = load ptr, ptr %7, align 8, !tbaa !13
  %106 = load i64, ptr %105, align 4
  %107 = and i64 %106, -65281
  %108 = or i64 %107, 3584
  store i64 %108, ptr %105, align 4
  br label %113

109:                                              ; preds = %93
  br label %110

110:                                              ; preds = %109
  br label %111

111:                                              ; preds = %110
  br label %112

112:                                              ; preds = %111
  store i32 0, ptr %4, align 4
  store i32 1, ptr %11, align 4
  br label %135

113:                                              ; preds = %96
  br label %114

114:                                              ; preds = %113, %92
  br label %115

115:                                              ; preds = %114, %22
  %116 = load ptr, ptr %7, align 8, !tbaa !13
  %117 = load i64, ptr %116, align 4
  %118 = and i64 %117, 255
  %119 = trunc i64 %118 to i32
  %120 = icmp ne i32 %119, 25
  br i1 %120, label %121, label %134

121:                                              ; preds = %115
  %122 = load ptr, ptr %7, align 8, !tbaa !13
  %123 = load i64, ptr %122, align 4
  %124 = lshr i64 %123, 16
  %125 = and i64 %124, 65535
  %126 = trunc i64 %125 to i32
  %127 = and i32 %126, -2
  %128 = zext i32 %127 to i64
  %129 = load i64, ptr %122, align 4
  %130 = and i64 %128, 65535
  %131 = shl i64 %130, 16
  %132 = and i64 %129, -4294901761
  %133 = or i64 %132, %131
  store i64 %133, ptr %122, align 4
  br label %134

134:                                              ; preds = %121, %115
  store i32 1, ptr %4, align 4
  store i32 1, ptr %11, align 4
  br label %135

135:                                              ; preds = %134, %112, %90, %36
  call void @llvm.lifetime.end.p0(i64 4, ptr %9) #5
  call void @llvm.lifetime.end.p0(i64 8, ptr %8) #5
  %136 = load i32, ptr %4, align 4
  ret i32 %136
}