; Function Attrs: nounwind uwtable
define range(i32 0, 2) i32 @lv_bin_decoder_info(ptr readnone captures(none) %0, ptr noundef %1, ptr noundef %2) #0 {
  %4 = alloca i32, align 4
  %5 = getelementptr inbounds nuw i8, ptr %1, i64 16
  %6 = load ptr, ptr %5, align 8, !tbaa !9
  %7 = getelementptr inbounds nuw i8, ptr %1, i64 24
  %8 = load i32, ptr %7, align 8, !tbaa !22
  switch i32 %8, label %41 [
    i32 0, label %9
    i32 1, label %11
    i32 2, label %32
  ]

9:                                                ; preds = %3
  %10 = tail call ptr @lv_memcpy(ptr noundef %2, ptr noundef %6, i64 noundef 12) #4
  %.pre = load i64, ptr %2, align 4
  br label %36

11:                                               ; preds = %3
  %12 = tail call ptr @lv_fs_get_ext(ptr noundef %6) #4
  %13 = tail call i32 @lv_strcmp(ptr noundef %12, ptr noundef nonnull @.str.1) #4
  %.not = icmp eq i32 %13, 0
  br i1 %.not, label %14, label %41

14:                                               ; preds = %11
  call void @llvm.lifetime.start.p0(i64 4, ptr nonnull %4) #4
  %15 = getelementptr inbounds nuw i8, ptr %1, i64 32
  %16 = call i32 @lv_fs_read(ptr noundef nonnull %15, ptr noundef %2, i32 noundef 12, ptr noundef nonnull %4) #4
  %17 = icmp eq i32 %16, 0
  %18 = load i32, ptr %4, align 4
  %19 = icmp eq i32 %18, 12
  %or.cond.not = select i1 %17, i1 %19, i1 false
  br i1 %or.cond.not, label %20, label %.critedge

20:                                               ; preds = %14
  %21 = load i64, ptr %2, align 4
  %22 = and i64 %21, 255
  %.not28 = icmp eq i64 %22, 25
  br i1 %.not28, label %29, label %23

23:                                               ; preds = %20
  %24 = shl i64 %21, 8
  %25 = and i64 %24, 65280
  %26 = and i64 %21, -65536
  %27 = or disjoint i64 %26, %25
  %28 = or disjoint i64 %27, 25
  br label %29

29:                                               ; preds = %23, %20
  %30 = phi i64 [ %28, %23 ], [ %21, %20 ]
  %31 = or i64 %30, 2097152
  store i64 %31, ptr %2, align 4
  call void @llvm.lifetime.end.p0(i64 4, ptr nonnull %4) #4
  br label %36

32:                                               ; preds = %3
  %33 = load i64, ptr %2, align 4
  %34 = and i64 %33, 4294902015
  %35 = or disjoint i64 %34, 281479271681536
  store i64 %35, ptr %2, align 4
  br label %36

36:                                               ; preds = %29, %32, %9
  %37 = phi i64 [ %31, %29 ], [ %35, %32 ], [ %.pre, %9 ]
  %38 = and i64 %37, 255
  %.not31 = icmp eq i64 %38, 25
  br i1 %.not31, label %41, label %39

39:                                               ; preds = %36
  %40 = and i64 %37, -65537
  store i64 %40, ptr %2, align 4
  br label %41

.critedge:                                        ; preds = %14
  call void @llvm.lifetime.end.p0(i64 4, ptr nonnull %4) #4
  br label %41

41:                                               ; preds = %36, %39, %3, %.critedge, %11
  %.0 = phi i32 [ 0, %11 ], [ 0, %.critedge ], [ 0, %3 ], [ 1, %39 ], [ 1, %36 ]
  ret i32 %.0
}